target datalayout = "e-m:e-p270:32:32-p271:32:32-p272:64:64-i64:64-i128:128-f80:128-n8:16:32:64-S128"
target triple = "x86_64-pc-linux-gnu"

%struct.x509_st = type { ptr, ptr, ptr, i32, i32, ptr, %struct.crypto_ex_data_st, i64, i64, i64, i64, i64, i64, ptr, ptr, ptr, ptr, ptr, ptr, [20 x i8], ptr }
%struct.crypto_ex_data_st = type { ptr }
%struct.x509_cinf_st = type { ptr, ptr, ptr, ptr, ptr, ptr, ptr, ptr, ptr, ptr, %struct.ASN1_ENCODING_st }
%struct.ASN1_ENCODING_st = type { ptr, i64, i32 }
%struct.evp_pkey_st = type { i32, i32, %union.anon, ptr }
%union.anon = type { ptr }

; Function Attrs: nounwind uwtable
define internal i32 @check_suite_b(ptr noundef %0, i32 noundef %1, ptr noundef %2) #0 {
  %4 = alloca i32, align 4
  %5 = alloca ptr, align 8
  %6 = alloca i32, align 4
  %7 = alloca ptr, align 8
  %8 = alloca ptr, align 8
  %9 = alloca i32, align 4
  %10 = alloca i32, align 4
  store ptr %0, ptr %5, align 8, !tbaa !79
  store i32 %1, ptr %6, align 4, !tbaa !35
  store ptr %2, ptr %7, align 8, !tbaa !84
  call void @llvm.lifetime.start.p0(i64 8, ptr %8) #5
  store ptr null, ptr %8, align 8, !tbaa !86
  call void @llvm.lifetime.start.p0(i64 4, ptr %9) #5
  %11 = load ptr, ptr %5, align 8, !tbaa !79
  %12 = icmp ne ptr %11, null
  br i1 %12, label %13, label %23

13:                                               ; preds = %3
  %14 = load ptr, ptr %5, align 8, !tbaa !79
  %15 = getelementptr inbounds nuw %struct.evp_pkey_st, ptr %14, i32 0, i32 1
  %16 = load i32, ptr %15, align 4, !tbaa !88
  %17 = icmp eq i32 %16, 408
  br i1 %17, label %18, label %23

18:                                               ; preds = %13
  %19 = load ptr, ptr %5, align 8, !tbaa !79
  %20 = getelementptr inbounds nuw %struct.evp_pkey_st, ptr %19, i32 0, i32 2
  %21 = load ptr, ptr %20, align 8, !tbaa !49
  %22 = call ptr @EC_KEY_get0_group(ptr noundef %21)
  store ptr %22, ptr %8, align 8, !tbaa !86
  br label %23

23:                                               ; preds = %18, %13, %3
  %24 = load ptr, ptr %8, align 8, !tbaa !86
  %25 = icmp ne ptr %24, null
  br i1 %25, label %27, label %26

26:                                               ; preds = %23
  store i32 57, ptr %4, align 4
  store i32 1, ptr %10, align 4
  br label %69

27:                                               ; preds = %23
  %28 = load ptr, ptr %8, align 8, !tbaa !86
  %29 = call i32 @EC_GROUP_get_curve_name(ptr noundef %28)
  store i32 %29, ptr %9, align 4, !tbaa !35
  %30 = load i32, ptr %9, align 4, !tbaa !35
  %31 = icmp eq i32 %30, 715
  br i1 %31, label %32, label %49

32:                                               ; preds = %27
  %33 = load i32, ptr %6, align 4, !tbaa !35
  %34 = icmp ne i32 %33, -1
  br i1 %34, label %35, label %39

35:                                               ; preds = %32
  %36 = load i32, ptr %6, align 4, !tbaa !35
  %37 = icmp ne i32 %36, 795
  br i1 %37, label %38, label %39

38:                                               ; preds = %35
  store i32 59, ptr %4, align 4
  store i32 1, ptr %10, align 4
  br label %69

39:                                               ; preds = %35, %32
  %40 = load ptr, ptr %7, align 8, !tbaa !84
  %41 = load i64, ptr %40, align 8, !tbaa !44
  %42 = and i64 %41, 131072
  %43 = icmp ne i64 %42, 0
  br i1 %43, label %45, label %44

44:                                               ; preds = %39
  store i32 60, ptr %4, align 4
  store i32 1, ptr %10, align 4
  br label %69

45:                                               ; preds = %39
  %46 = load ptr, ptr %7, align 8, !tbaa !84
  %47 = load i64, ptr %46, align 8, !tbaa !44
  %48 = and i64 %47, -65537
  store i64 %48, ptr %46, align 8, !tbaa !44
  br label %68

49:                                               ; preds = %27
  %50 = load i32, ptr %9, align 4, !tbaa !35
  %51 = icmp eq i32 %50, 415
  br i1 %51, label %52, label %66

52:                                               ; preds = %49
  %53 = load i32, ptr %6, align 4, !tbaa !35
  %54 = icmp ne i32 %53, -1
  br i1 %54, label %55, label %59

55:                                               ; preds = %52
  %56 = load i32, ptr %6, align 4, !tbaa !35
  %57 = icmp ne i32 %56, 794
  br i1 %57, label %58, label %59

58:                                               ; preds = %55
  store i32 59, ptr %4, align 4
  store i32 1, ptr %10, align 4
  br label %69

59:                                               ; preds = %55, %52
  %60 = load ptr, ptr %7, align 8, !tbaa !84
  %61 = load i64, ptr %60, align 8, !tbaa !44
  %62 = and i64 %61, 65536
  %63 = icmp ne i64 %62, 0
  br i1 %63, label %65, label %64

64:                                               ; preds = %59
  store i32 60, ptr %4, align 4
  store i32 1, ptr %10, align 4
  br label %69

65:                                               ; preds = %59
  br label %67

66:                                               ; preds = %49
  store i32 58, ptr %4, align 4
  store i32 1, ptr %10, align 4
  br label %69

67:                                               ; preds = %65
  br label %68

68:                                               ; preds = %67, %45
  store i32 0, ptr %4, align 4
  store i32 1, ptr %10, align 4
  br label %69

69:                                               ; preds = %68, %66, %64, %58, %44, %38, %26
  call void @llvm.lifetime.end.p0(i64 4, ptr %9) #5
  call void @llvm.lifetime.end.p0(i64 8, ptr %8) #5
  %70 = load i32, ptr %4, align 4
  ret i32 %70
}

; Function Attrs: nounwind uwtable
define hidden ptr @X509_get_pubkey(ptr noundef %0) #0 {
  %2 = alloca ptr, align 8
  %3 = alloca ptr, align 8
  store ptr %0, ptr %3, align 8, !tbaa !6
  %4 = load ptr, ptr %3, align 8, !tbaa !6
  %5 = icmp eq ptr %4, null
  br i1 %5, label %11, label %6

6:                                                ; preds = %1
  %7 = load ptr, ptr %3, align 8, !tbaa !6
  %8 = getelementptr inbounds nuw %struct.x509_st, ptr %7, i32 0, i32 0
  %9 = load ptr, ptr %8, align 8, !tbaa !11
  %10 = icmp eq ptr %9, null
  br i1 %10, label %11, label %12

11:                                               ; preds = %6, %1
  store ptr null, ptr %2, align 8
  br label %19

12:                                               ; preds = %6
  %13 = load ptr, ptr %3, align 8, !tbaa !6
  %14 = getelementptr inbounds nuw %struct.x509_st, ptr %13, i32 0, i32 0
  %15 = load ptr, ptr %14, align 8, !tbaa !11
  %16 = getelementptr inbounds nuw %struct.x509_cinf_st, ptr %15, i32 0, i32 6
  %17 = load ptr, ptr %16, align 8, !tbaa !75
  %18 = call ptr @X509_PUBKEY_get(ptr noundef %17)
  store ptr %18, ptr %2, align 8
  br label %19

19:                                               ; preds = %12, %11
  %20 = load ptr, ptr %2, align 8
  ret ptr %20
}

; Function Attrs: nounwind uwtable
define hidden i32 @X509_chain_check_suiteb(ptr noundef %0, ptr noundef %1, ptr noundef %2, i64 noundef %3) #0 {
  %5 = alloca i32, align 4
  %6 = alloca ptr, align 8
  %7 = alloca ptr, align 8
  %8 = alloca ptr, align 8
  %9 = alloca i64, align 8
  %10 = alloca i32, align 4
  %11 = alloca i32, align 4
  %12 = alloca i64, align 8
  %13 = alloca ptr, align 8
  %14 = alloca i64, align 8
  %15 = alloca i32, align 4
  store ptr %0, ptr %6, align 8, !tbaa !80
  store ptr %1, ptr %7, align 8, !tbaa !6
  store ptr %2, ptr %8, align 8, !tbaa !69
  store i64 %3, ptr %9, align 8, !tbaa !44
  call void @llvm.lifetime.start.p0(i64 4, ptr %10) #5
  call void @llvm.lifetime.start.p0(i64 4, ptr %11) #5
  call void @llvm.lifetime.start.p0(i64 8, ptr %12) #5
  call void @llvm.lifetime.start.p0(i64 8, ptr %13) #5
  store ptr null, ptr %13, align 8, !tbaa !79
  call void @llvm.lifetime.start.p0(i64 8, ptr %14) #5
  %16 = load i64, ptr %9, align 8, !tbaa !44
  %17 = and i64 %16, 196608
  %18 = icmp ne i64 %17, 0
  br i1 %18, label %20, label %19

19:                                               ; preds = %4
  store i32 0, ptr %5, align 4
  store i32 1, ptr %15, align 4
  br label %122

20:                                               ; preds = %4
  %21 = load i64, ptr %9, align 8, !tbaa !44
  store i64 %21, ptr %14, align 8, !tbaa !44
  %22 = load ptr, ptr %7, align 8, !tbaa !6
  %23 = icmp eq ptr %22, null
  br i1 %23, label %24, label %27

24:                                               ; preds = %20
  %25 = load ptr, ptr %8, align 8, !tbaa !69
  %26 = call ptr @sk_value(ptr noundef %25, i64 noundef 0)
  store ptr %26, ptr %7, align 8, !tbaa !6
  store i64 1, ptr %12, align 8, !tbaa !44
  br label %28

27:                                               ; preds = %20
  store i64 0, ptr %12, align 8, !tbaa !44
  br label %28

28:                                               ; preds = %27, %24
  %29 = load ptr, ptr %7, align 8, !tbaa !6
  %30 = getelementptr inbounds nuw %struct.x509_st, ptr %29, i32 0, i32 0
  %31 = load ptr, ptr %30, align 8, !tbaa !11
  %32 = getelementptr inbounds nuw %struct.x509_cinf_st, ptr %31, i32 0, i32 0
  %33 = load ptr, ptr %32, align 8, !tbaa !82
  %34 = call i64 @ASN1_INTEGER_get(ptr noundef %33)
  %35 = icmp ne i64 %34, 2
  br i1 %35, label %36, label %37

36:                                               ; preds = %28
  store i32 56, ptr %10, align 4, !tbaa !35
  store i64 0, ptr %12, align 8, !tbaa !44
  br label %84

37:                                               ; preds = %28
  %38 = load ptr, ptr %7, align 8, !tbaa !6
  %39 = call ptr @X509_get_pubkey(ptr noundef %38)
  store ptr %39, ptr %13, align 8, !tbaa !79
  %40 = load ptr, ptr %13, align 8, !tbaa !79
  %41 = call i32 @check_suite_b(ptr noundef %40, i32 noundef -1, ptr noundef %14)
  store i32 %41, ptr %10, align 4, !tbaa !35
  %42 = load i32, ptr %10, align 4, !tbaa !35
  %43 = icmp ne i32 %42, 0
  br i1 %43, label %44, label %45

44:                                               ; preds = %37
  store i64 0, ptr %12, align 8, !tbaa !44
  br label %84

45:                                               ; preds = %37
  br label %46

46:                                               ; preds = %76, %45
  %47 = load i64, ptr %12, align 8, !tbaa !44
  %48 = load ptr, ptr %8, align 8, !tbaa !69
  %49 = call i64 @sk_num(ptr noundef %48)
  %50 = icmp ult i64 %47, %49
  br i1 %50, label %51, label %79

51:                                               ; preds = %46
  %52 = load ptr, ptr %7, align 8, !tbaa !6
  %53 = call i32 @X509_get_signature_nid(ptr noundef %52)
  store i32 %53, ptr %11, align 4, !tbaa !35
  %54 = load ptr, ptr %8, align 8, !tbaa !69
  %55 = load i64, ptr %12, align 8, !tbaa !44
  %56 = call ptr @sk_value(ptr noundef %54, i64 noundef %55)
  store ptr %56, ptr %7, align 8, !tbaa !6
  %57 = load ptr, ptr %7, align 8, !tbaa !6
  %58 = getelementptr inbounds nuw %struct.x509_st, ptr %57, i32 0, i32 0
  %59 = load ptr, ptr %58, align 8, !tbaa !11
  %60 = getelementptr inbounds nuw %struct.x509_cinf_st, ptr %59, i32 0, i32 0
  %61 = load ptr, ptr %60, align 8, !tbaa !82
  %62 = call i64 @ASN1_INTEGER_get(ptr noundef %61)
  %63 = icmp ne i64 %62, 2
  br i1 %63, label %64, label %65

64:                                               ; preds = %51
  store i32 56, ptr %10, align 4, !tbaa !35
  br label %84

65:                                               ; preds = %51
  %66 = load ptr, ptr %13, align 8, !tbaa !79
  call void @EVP_PKEY_free(ptr noundef %66)
  %67 = load ptr, ptr %7, align 8, !tbaa !6
  %68 = call ptr @X509_get_pubkey(ptr noundef %67)
  store ptr %68, ptr %13, align 8, !tbaa !79
  %69 = load ptr, ptr %13, align 8, !tbaa !79
  %70 = load i32, ptr %11, align 4, !tbaa !35
  %71 = call i32 @check_suite_b(ptr noundef %69, i32 noundef %70, ptr noundef %14)
  store i32 %71, ptr %10, align 4, !tbaa !35
  %72 = load i32, ptr %10, align 4, !tbaa !35
  %73 = icmp ne i32 %72, 0
  br i1 %73, label %74, label %75

74:                                               ; preds = %65
  br label %84

75:                                               ; preds = %65
  br label %76

76:                                               ; preds = %75
  %77 = load i64, ptr %12, align 8, !tbaa !44
  %78 = add i64 %77, 1
  store i64 %78, ptr %12, align 8, !tbaa !44
  br label %46, !llvm.loop !83

79:                                               ; preds = %46
  %80 = load ptr, ptr %13, align 8, !tbaa !79
  %81 = load ptr, ptr %7, align 8, !tbaa !6
  %82 = call i32 @X509_get_signature_nid(ptr noundef %81)
  %83 = call i32 @check_suite_b(ptr noundef %80, i32 noundef %82, ptr noundef %14)
  store i32 %83, ptr %10, align 4, !tbaa !35
  br label %84

84:                                               ; preds = %79, %74, %64, %44, %36
  %85 = load ptr, ptr %13, align 8, !tbaa !79
  %86 = icmp ne ptr %85, null
  br i1 %86, label %87, label %89

87:                                               ; preds = %84
  %88 = load ptr, ptr %13, align 8, !tbaa !79
  call void @EVP_PKEY_free(ptr noundef %88)
  br label %89

89:                                               ; preds = %87, %84
  %90 = load i32, ptr %10, align 4, !tbaa !35
  %91 = icmp ne i32 %90, 0
  br i1 %91, label %92, label %120

92:                                               ; preds = %89
  %93 = load i32, ptr %10, align 4, !tbaa !35
  %94 = icmp eq i32 %93, 59
  br i1 %94, label %98, label %95

95:                                               ; preds = %92
  %96 = load i32, ptr %10, align 4, !tbaa !35
  %97 = icmp eq i32 %96, 60
  br i1 %97, label %98, label %104

98:                                               ; preds = %95, %92
  %99 = load i64, ptr %12, align 8, !tbaa !44
  %100 = icmp ne i64 %99, 0
  br i1 %100, label %101, label %104

101:                                              ; preds = %98
  %102 = load i64, ptr %12, align 8, !tbaa !44
  %103 = add i64 %102, -1
  store i64 %103, ptr %12, align 8, !tbaa !44
  br label %104

104:                                              ; preds = %101, %98, %95
  %105 = load i32, ptr %10, align 4, !tbaa !35
  %106 = icmp eq i32 %105, 60
  br i1 %106, label %107, label %112

107:                                              ; preds = %104
  %108 = load i64, ptr %9, align 8, !tbaa !44
  %109 = load i64, ptr %14, align 8, !tbaa !44
  %110 = icmp ne i64 %108, %109
  br i1 %110, label %111, label %112

111:                                              ; preds = %107
  store i32 61, ptr %10, align 4, !tbaa !35
  br label %112

112:                                              ; preds = %111, %107, %104
  %113 = load ptr, ptr %6, align 8, !tbaa !80
  %114 = icmp ne ptr %113, null
  br i1 %114, label %115, label %119

115:                                              ; preds = %112
  %116 = load i64, ptr %12, align 8, !tbaa !44
  %117 = trunc i64 %116 to i32
  %118 = load ptr, ptr %6, align 8, !tbaa !80
  store i32 %117, ptr %118, align 4, !tbaa !35
  br label %119

119:                                              ; preds = %115, %112
  br label %120

120:                                              ; preds = %119, %89
  %121 = load i32, ptr %10, align 4, !tbaa !35
  store i32 %121, ptr %5, align 4
  store i32 1, ptr %15, align 4
  br label %122

122:                                              ; preds = %120, %19
  call void @llvm.lifetime.end.p0(i64 8, ptr %14) #5
  call void @llvm.lifetime.end.p0(i64 8, ptr %13) #5
  call void @llvm.lifetime.end.p0(i64 8, ptr %12) #5
  call void @llvm.lifetime.end.p0(i64 4, ptr %11) #5
  call void @llvm.lifetime.end.p0(i64 4, ptr %10) #5
  %123 = load i32, ptr %5, align 4
  ret i32 %123
}