; Function Attrs: nounwind uwtable
define hidden range(i32 0, 62) i32 @X509_chain_check_suiteb(ptr noundef writeonly captures(address_is_null) %0, ptr noundef %1, ptr noundef %2, i64 noundef %3) local_unnamed_addr #0 {
  %5 = and i64 %3, 196608
  %.not = icmp eq i64 %5, 0
  br i1 %.not, label %96, label %6

6:                                                ; preds = %4
  %7 = icmp eq ptr %1, null
  br i1 %7, label %8, label %10

8:                                                ; preds = %6
  %9 = tail call ptr @sk_value(ptr noundef %2, i64 noundef 0) #8
  br label %10

10:                                               ; preds = %6, %8
  %.044 = phi ptr [ %9, %8 ], [ %1, %6 ]
  %.038 = phi i64 [ 1, %8 ], [ 0, %6 ]
  %11 = load ptr, ptr %.044, align 8, !tbaa !6
  %12 = load ptr, ptr %11, align 8, !tbaa !66
  %13 = tail call i64 @ASN1_INTEGER_get(ptr noundef %12) #8
  %.not50 = icmp eq i64 %13, 2
  br i1 %.not50, label %14, label %.thread.thread

14:                                               ; preds = %10
  %15 = load ptr, ptr %.044, align 8, !tbaa !6
  %16 = icmp eq ptr %15, null
  br i1 %16, label %.thread.thread, label %X509_get_pubkey.exit

X509_get_pubkey.exit:                             ; preds = %14
  %17 = getelementptr inbounds nuw i8, ptr %15, i64 48
  %18 = load ptr, ptr %17, align 8, !tbaa !62
  %19 = tail call ptr @X509_PUBKEY_get(ptr noundef %18) #8
  %.not.i = icmp eq ptr %19, null
  br i1 %.not.i, label %.thread.thread, label %20

20:                                               ; preds = %X509_get_pubkey.exit
  %21 = getelementptr inbounds nuw i8, ptr %19, i64 4
  %22 = load i32, ptr %21, align 4, !tbaa !67
  %23 = icmp eq i32 %22, 408
  br i1 %23, label %24, label %.thread

24:                                               ; preds = %20
  %25 = getelementptr inbounds nuw i8, ptr %19, i64 8
  %26 = load ptr, ptr %25, align 8, !tbaa !70
  %27 = tail call ptr @EC_KEY_get0_group(ptr noundef %26) #8
  %.not20.i = icmp eq ptr %27, null
  br i1 %.not20.i, label %.thread, label %28

28:                                               ; preds = %24
  %29 = tail call i32 @EC_GROUP_get_curve_name(ptr noundef nonnull %27) #8
  switch i32 %29, label %.thread [
    i32 715, label %30
    i32 415, label %34
  ]

30:                                               ; preds = %28
  %31 = and i64 %3, 131072
  %.not22.i = icmp eq i64 %31, 0
  br i1 %.not22.i, label %.thread, label %32

32:                                               ; preds = %30
  %33 = and i64 %3, -65537
  br label %check_suite_b.exit

34:                                               ; preds = %28
  %35 = and i64 %3, 65536
  %.not21.i = icmp eq i64 %35, 0
  br i1 %.not21.i, label %.thread, label %check_suite_b.exit

check_suite_b.exit:                               ; preds = %34, %32
  %.3 = phi i64 [ %33, %32 ], [ %3, %34 ]
  %36 = tail call i64 @sk_num(ptr noundef %2) #8
  %37 = icmp ult i64 %.038, %36
  br i1 %37, label %.lr.ph, label %._crit_edge

.lr.ph:                                           ; preds = %check_suite_b.exit, %check_suite_b.exit67
  %.1165 = phi ptr [ %48, %check_suite_b.exit67 ], [ %19, %check_suite_b.exit ]
  %.2164 = phi i64 [ %67, %check_suite_b.exit67 ], [ %.038, %check_suite_b.exit ]
  %.145163 = phi ptr [ %39, %check_suite_b.exit67 ], [ %.044, %check_suite_b.exit ]
  %.181162 = phi i64 [ %.5, %check_suite_b.exit67 ], [ %.3, %check_suite_b.exit ]
  %38 = tail call i32 @X509_get_signature_nid(ptr noundef nonnull %.145163) #8
  %39 = tail call ptr @sk_value(ptr noundef %2, i64 noundef %.2164) #8
  %40 = load ptr, ptr %39, align 8, !tbaa !6
  %41 = load ptr, ptr %40, align 8, !tbaa !66
  %42 = tail call i64 @ASN1_INTEGER_get(ptr noundef %41) #8
  %.not52 = icmp eq i64 %42, 2
  br i1 %.not52, label %43, label %.thread

43:                                               ; preds = %.lr.ph
  tail call void @EVP_PKEY_free(ptr noundef nonnull %.1165) #8
  %44 = load ptr, ptr %39, align 8, !tbaa !6
  %45 = icmp eq ptr %44, null
  br i1 %45, label %.thread.thread, label %X509_get_pubkey.exit61

X509_get_pubkey.exit61:                           ; preds = %43
  %46 = getelementptr inbounds nuw i8, ptr %44, i64 48
  %47 = load ptr, ptr %46, align 8, !tbaa !62
  %48 = tail call ptr @X509_PUBKEY_get(ptr noundef %47) #8
  %.not.i62 = icmp eq ptr %48, null
  br i1 %.not.i62, label %.thread.thread, label %49

49:                                               ; preds = %X509_get_pubkey.exit61
  %50 = getelementptr inbounds nuw i8, ptr %48, i64 4
  %51 = load i32, ptr %50, align 4, !tbaa !67
  %52 = icmp eq i32 %51, 408
  br i1 %52, label %53, label %.thread

53:                                               ; preds = %49
  %54 = getelementptr inbounds nuw i8, ptr %48, i64 8
  %55 = load ptr, ptr %54, align 8, !tbaa !70
  %56 = tail call ptr @EC_KEY_get0_group(ptr noundef %55) #8
  %.not20.i64 = icmp eq ptr %56, null
  br i1 %.not20.i64, label %.thread, label %57

57:                                               ; preds = %53
  %58 = tail call i32 @EC_GROUP_get_curve_name(ptr noundef nonnull %56) #8
  switch i32 %58, label %.thread [
    i32 715, label %59
    i32 415, label %64
  ]

59:                                               ; preds = %57
  switch i32 %38, label %.thread [
    i32 -1, label %60
    i32 795, label %60
  ]

60:                                               ; preds = %59, %59
  %61 = and i64 %.181162, 131072
  %.not22.i66 = icmp eq i64 %61, 0
  br i1 %.not22.i66, label %.thread, label %62

62:                                               ; preds = %60
  %63 = and i64 %.181162, -65537
  br label %check_suite_b.exit67

64:                                               ; preds = %57
  switch i32 %38, label %.thread [
    i32 -1, label %65
    i32 794, label %65
  ]

65:                                               ; preds = %64, %64
  %66 = and i64 %.181162, 65536
  %.not21.i65 = icmp eq i64 %66, 0
  br i1 %.not21.i65, label %.thread, label %check_suite_b.exit67

check_suite_b.exit67:                             ; preds = %65, %62
  %.5 = phi i64 [ %63, %62 ], [ %.181162, %65 ]
  %67 = add nuw i64 %.2164, 1
  %68 = tail call i64 @sk_num(ptr noundef %2) #8
  %69 = icmp ult i64 %67, %68
  br i1 %69, label %.lr.ph, label %._crit_edge, !llvm.loop !71

._crit_edge:                                      ; preds = %check_suite_b.exit67, %check_suite_b.exit
  %.181.lcssa = phi i64 [ %.3, %check_suite_b.exit ], [ %.5, %check_suite_b.exit67 ]
  %.145.lcssa = phi ptr [ %.044, %check_suite_b.exit ], [ %39, %check_suite_b.exit67 ]
  %.2.lcssa = phi i64 [ %.038, %check_suite_b.exit ], [ %67, %check_suite_b.exit67 ]
  %.1.lcssa = phi ptr [ %19, %check_suite_b.exit ], [ %48, %check_suite_b.exit67 ]
  %70 = tail call i32 @X509_get_signature_nid(ptr noundef nonnull %.145.lcssa) #8
  %71 = getelementptr inbounds nuw i8, ptr %.1.lcssa, i64 4
  %72 = load i32, ptr %71, align 4, !tbaa !67
  %73 = icmp eq i32 %72, 408
  br i1 %73, label %74, label %.thread

74:                                               ; preds = %._crit_edge
  %75 = getelementptr inbounds nuw i8, ptr %.1.lcssa, i64 8
  %76 = load ptr, ptr %75, align 8, !tbaa !70
  %77 = tail call ptr @EC_KEY_get0_group(ptr noundef %76) #8
  %.not20.i70 = icmp eq ptr %77, null
  br i1 %.not20.i70, label %.thread, label %78

78:                                               ; preds = %74
  %79 = tail call i32 @EC_GROUP_get_curve_name(ptr noundef nonnull %77) #8
  switch i32 %79, label %.thread [
    i32 715, label %80
    i32 415, label %83
  ]

80:                                               ; preds = %78
  switch i32 %70, label %.thread [
    i32 -1, label %81
    i32 795, label %81
  ]

81:                                               ; preds = %80, %80
  %82 = and i64 %.181.lcssa, 131072
  %.not22.i72 = icmp eq i64 %82, 0
  br i1 %.not22.i72, label %.thread, label %86

83:                                               ; preds = %78
  switch i32 %70, label %.thread [
    i32 -1, label %84
    i32 794, label %84
  ]

84:                                               ; preds = %83, %83
  %85 = and i64 %.181.lcssa, 65536
  %.not21.i71 = icmp eq i64 %85, 0
  br i1 %.not21.i71, label %.thread, label %86

86:                                               ; preds = %81, %84
  tail call void @EVP_PKEY_free(ptr noundef nonnull %.1.lcssa) #8
  br label %96

.thread:                                          ; preds = %.lr.ph, %53, %57, %64, %65, %59, %60, %49, %74, %80, %81, %83, %84, %78, %._crit_edge, %24, %28, %34, %30, %20
  %.1150.sink = phi ptr [ %19, %20 ], [ %19, %28 ], [ %19, %34 ], [ %19, %30 ], [ %19, %24 ], [ %.1.lcssa, %74 ], [ %.1.lcssa, %80 ], [ %.1.lcssa, %81 ], [ %.1.lcssa, %83 ], [ %.1.lcssa, %84 ], [ %.1.lcssa, %78 ], [ %.1.lcssa, %._crit_edge ], [ %48, %53 ], [ %48, %57 ], [ %48, %64 ], [ %48, %65 ], [ %48, %59 ], [ %48, %60 ], [ %48, %49 ], [ %.1165, %.lr.ph ]
  %.080103121 = phi i64 [ %3, %20 ], [ %3, %28 ], [ %3, %34 ], [ %3, %30 ], [ %3, %24 ], [ %.181.lcssa, %74 ], [ %.181.lcssa, %80 ], [ %.181.lcssa, %81 ], [ %.181.lcssa, %83 ], [ %.181.lcssa, %84 ], [ %.181.lcssa, %78 ], [ %.181.lcssa, %._crit_edge ], [ %.181162, %49 ], [ %.181162, %60 ], [ %.181162, %59 ], [ %.181162, %65 ], [ %.181162, %64 ], [ %.181162, %57 ], [ %.181162, %53 ], [ %.181162, %.lr.ph ]
  %87 = phi i1 [ false, %20 ], [ false, %28 ], [ true, %34 ], [ true, %30 ], [ false, %24 ], [ false, %74 ], [ false, %80 ], [ true, %81 ], [ false, %83 ], [ true, %84 ], [ false, %78 ], [ false, %._crit_edge ], [ false, %53 ], [ false, %57 ], [ false, %64 ], [ true, %65 ], [ false, %59 ], [ true, %60 ], [ false, %49 ], [ false, %.lr.ph ]
  %.041105120 = phi i32 [ 57, %20 ], [ 58, %28 ], [ 60, %34 ], [ 60, %30 ], [ 57, %24 ], [ 57, %74 ], [ 59, %80 ], [ 60, %81 ], [ 59, %83 ], [ 60, %84 ], [ 58, %78 ], [ 57, %._crit_edge ], [ 57, %53 ], [ 58, %57 ], [ 59, %64 ], [ 60, %65 ], [ 59, %59 ], [ 60, %60 ], [ 57, %49 ], [ 56, %.lr.ph ]
  %.139107119 = phi i64 [ 0, %20 ], [ 0, %28 ], [ 0, %34 ], [ 0, %30 ], [ 0, %24 ], [ %.2.lcssa, %74 ], [ %.2.lcssa, %80 ], [ %.2.lcssa, %81 ], [ %.2.lcssa, %83 ], [ %.2.lcssa, %84 ], [ %.2.lcssa, %78 ], [ %.2.lcssa, %._crit_edge ], [ %.2164, %49 ], [ %.2164, %60 ], [ %.2164, %59 ], [ %.2164, %65 ], [ %.2164, %64 ], [ %.2164, %57 ], [ %.2164, %53 ], [ %.2164, %.lr.ph ]
  tail call void @EVP_PKEY_free(ptr noundef nonnull %.1150.sink) #8
  %.not56 = icmp eq i64 %3, %.080103121
  %spec.select58 = select i1 %.not56, i32 60, i32 61
  %spec.select207 = select i1 %87, i32 %spec.select58, i32 %.041105120
  %88 = add nsw i32 %.041105120, -59
  %89 = icmp ult i32 %88, 2
  %90 = select i1 %87, i1 true, i1 %89
  br label %.thread.thread

.thread.thread:                                   ; preds = %X509_get_pubkey.exit61, %43, %.thread, %14, %X509_get_pubkey.exit, %10
  %.139107119190 = phi i64 [ 0, %14 ], [ 0, %X509_get_pubkey.exit ], [ 0, %10 ], [ %.139107119, %.thread ], [ %.2164, %43 ], [ %.2164, %X509_get_pubkey.exit61 ]
  %.041105120189 = phi i1 [ false, %14 ], [ false, %X509_get_pubkey.exit ], [ false, %10 ], [ %90, %.thread ], [ false, %43 ], [ false, %X509_get_pubkey.exit61 ]
  %91 = phi i32 [ 57, %14 ], [ 57, %X509_get_pubkey.exit ], [ 56, %10 ], [ %spec.select207, %.thread ], [ 57, %43 ], [ 57, %X509_get_pubkey.exit61 ]
  %.not57 = icmp eq ptr %0, null
  br i1 %.not57, label %96, label %92

92:                                               ; preds = %.thread.thread
  %93 = icmp ne i64 %.139107119190, 0
  %or.cond3 = select i1 %.041105120189, i1 %93, i1 false
  %94 = sext i1 %or.cond3 to i64
  %spec.select = add i64 %.139107119190, %94
  %95 = trunc i64 %spec.select to i32
  store i32 %95, ptr %0, align 4, !tbaa !72
  br label %96

96:                                               ; preds = %86, %92, %.thread.thread, %4
  %.040 = phi i32 [ 0, %4 ], [ %91, %92 ], [ %91, %.thread.thread ], [ 0, %86 ]
  ret i32 %.040
}